; Function Attrs: nounwind uwtable
define internal noundef i32 @_blendop_blendif_reset(ptr readnone captures(none) %0, ptr readnone captures(none) %1, ptr noundef %2) #0 {
  %4 = getelementptr inbounds nuw i8, ptr %2, i64 768
  %5 = load ptr, ptr %4, align 16, !tbaa !128
  %6 = getelementptr inbounds nuw i8, ptr %5, i64 28
  %7 = load i32, ptr %6, align 4, !tbaa !116
  %8 = getelementptr inbounds nuw i8, ptr %2, i64 760
  %9 = load ptr, ptr %8, align 8, !tbaa !71
  %10 = getelementptr inbounds nuw i8, ptr %9, i64 28
  store i32 %7, ptr %10, align 4, !tbaa !116
  %11 = getelementptr inbounds nuw i8, ptr %9, i64 68
  %12 = getelementptr inbounds nuw i8, ptr %5, i64 68
  tail call void @llvm.memcpy.p0.p0.i64(ptr noundef nonnull align 4 dereferenceable(256) %11, ptr noundef nonnull align 4 dereferenceable(256) %12, i64 256, i1 false)
  %13 = load ptr, ptr %4, align 16, !tbaa !128
  %14 = getelementptr inbounds nuw i8, ptr %13, i64 52
  %15 = load float, ptr %14, align 4, !tbaa !155
  %16 = load ptr, ptr %8, align 8, !tbaa !71
  %17 = getelementptr inbounds nuw i8, ptr %16, i64 52
  store float %15, ptr %17, align 4, !tbaa !155
  tail call void @dt_iop_color_picker_reset(ptr noundef %2, i32 noundef 0) #18
  tail call void @dt_iop_gui_update_blendif(ptr noundef %2)
  %18 = load ptr, ptr getelementptr inbounds nuw (i8, ptr @darktable, i64 64), align 8, !tbaa !119
  tail call void @dt_dev_add_history_item(ptr noundef %18, ptr noundef %2, i32 noundef 1) #18
  ret i32 1
}